; Function Attrs: mustprogress uwtable
define noundef zeroext i1 @_ZN32pxrInternal_v0_24__pxrReserved__11UsdGeomCube13ComputeExtentEdRKNS_10GfMatrix4dEPNS_7VtArrayINS_7GfVec3fEEE(double noundef %0, ptr noundef nonnull align 8 dereferenceable(128) %1, ptr noundef nonnull %2) local_unnamed_addr #0 align 2 {
  %4 = alloca %"class.pxrInternal_v0_24__pxrReserved__::GfBBox3d", align 8
  %5 = alloca %"class.pxrInternal_v0_24__pxrReserved__::GfRange3d", align 8
  tail call void @_ZN32pxrInternal_v0_24__pxrReserved__7VtArrayINS_7GfVec3fEE6resizeEm(ptr noundef nonnull align 8 dereferenceable(40) %2, i64 noundef 2)
  %6 = fmul double %0, -5.000000e-01
  %7 = fmul double %0, 5.000000e-01
  %8 = getelementptr inbounds i8, ptr %4, i64 16
  %9 = getelementptr inbounds i8, ptr %4, i64 8
  %10 = getelementptr inbounds nuw i8, ptr %4, i64 24
  %11 = getelementptr inbounds i8, ptr %4, i64 40
  %12 = getelementptr inbounds i8, ptr %4, i64 32
  store double %6, ptr %4, align 8
  store double %6, ptr %9, align 8
  store double %6, ptr %8, align 8
  store double %7, ptr %10, align 8
  store double %7, ptr %12, align 8
  store double %7, ptr %11, align 8
  call void @_ZN32pxrInternal_v0_24__pxrReserved__8GfBBox3d12_SetMatricesERKNS_10GfMatrix4dE(ptr noundef nonnull align 8 dereferenceable(306) %4, ptr noundef nonnull align 8 dereferenceable(128) %1)
  %13 = getelementptr inbounds nuw i8, ptr %4, i64 305
  store i8 0, ptr %13, align 1
  call void @_ZNK32pxrInternal_v0_24__pxrReserved__8GfBBox3d19ComputeAlignedRangeEv(ptr dead_on_unwind nonnull writable sret(%"class.pxrInternal_v0_24__pxrReserved__::GfRange3d") align 8 %5, ptr noundef nonnull align 8 dereferenceable(306) %4)
  %14 = load double, ptr %5, align 8
  %15 = fptrunc double %14 to float
  %16 = getelementptr inbounds i8, ptr %5, i64 8
  %17 = load double, ptr %16, align 8
  %18 = fptrunc double %17 to float
  %19 = getelementptr inbounds i8, ptr %5, i64 16
  %20 = load double, ptr %19, align 8
  %21 = fptrunc double %20 to float
  %22 = call noundef nonnull align 4 dereferenceable(12) ptr @_ZN32pxrInternal_v0_24__pxrReserved__7VtArrayINS_7GfVec3fEEixEm(ptr noundef nonnull align 8 dereferenceable(40) %2, i64 noundef 0)
  store float %15, ptr %22, align 4
  %.sroa.27.0..sroa_idx = getelementptr inbounds i8, ptr %22, i64 4
  store float %18, ptr %.sroa.27.0..sroa_idx, align 4
  %.sroa.38.0..sroa_idx = getelementptr inbounds i8, ptr %22, i64 8
  store float %21, ptr %.sroa.38.0..sroa_idx, align 4
  %23 = getelementptr inbounds nuw i8, ptr %5, i64 24
  %24 = load double, ptr %23, align 8
  %25 = fptrunc double %24 to float
  %26 = getelementptr inbounds i8, ptr %5, i64 32
  %27 = load double, ptr %26, align 8
  %28 = fptrunc double %27 to float
  %29 = getelementptr inbounds i8, ptr %5, i64 40
  %30 = load double, ptr %29, align 8
  %31 = fptrunc double %30 to float
  %32 = call noundef nonnull align 4 dereferenceable(12) ptr @_ZN32pxrInternal_v0_24__pxrReserved__7VtArrayINS_7GfVec3fEEixEm(ptr noundef nonnull align 8 dereferenceable(40) %2, i64 noundef 1)
  store float %25, ptr %32, align 4
  %.sroa.2.0..sroa_idx = getelementptr inbounds i8, ptr %32, i64 4
  store float %28, ptr %.sroa.2.0..sroa_idx, align 4
  %.sroa.3.0..sroa_idx = getelementptr inbounds i8, ptr %32, i64 8
  store float %31, ptr %.sroa.3.0..sroa_idx, align 4
  ret i1 true
}